; Function Attrs: mustprogress nounwind uwtable
define hidden void @_ZN30ShenandoahWorkerTimingsTrackerD2Ev(ptr noundef nonnull align 8 dereferenceable(72) %0) unnamed_addr #1 align 2 {
  %2 = load ptr, ptr %0, align 8
  %3 = getelementptr inbounds i8, ptr %0, i64 8
  %4 = load i32, ptr %3, align 8
  %5 = getelementptr inbounds i8, ptr %0, i64 12
  %6 = load i32, ptr %5, align 4
  %7 = add nsw i32 %4, 1
  %8 = add nsw i32 %7, %6
  %9 = getelementptr inbounds i8, ptr %2, i64 27816
  %10 = zext i32 %8 to i64
  %11 = getelementptr inbounds [316 x ptr], ptr %9, i64 0, i64 %10
  %12 = load ptr, ptr %11, align 8
  %13 = getelementptr inbounds i8, ptr %0, i64 16
  %14 = load i32, ptr %13, align 8
  %15 = tail call noundef double @_ZN2os11elapsedTimeEv() #12
  %16 = getelementptr inbounds i8, ptr %0, i64 24
  %17 = load double, ptr %16, align 8
  %18 = fsub double %15, %17
  %19 = load ptr, ptr %12, align 8
  %20 = zext i32 %14 to i64
  %21 = getelementptr inbounds double, ptr %19, i64 %20
  store double %18, ptr %21, align 8
  %22 = load i32, ptr %3, align 8
  switch i32 %22, label %_ZN22ShenandoahPhaseTimings18is_root_work_phaseENS_5PhaseE.exit [
    i32 19, label %23
    i32 56, label %23
    i32 209, label %23
    i32 236, label %23
    i32 225, label %23
    i32 286, label %23
  ]

23:                                               ; preds = %1, %1, %1, %1, %1, %1
  %24 = load i32, ptr %5, align 4
  %25 = add nuw nsw i32 %22, 1
  %26 = add nsw i32 %25, %24
  %27 = getelementptr inbounds i8, ptr %0, i64 32
  %28 = tail call noundef i32 @_ZN4GCId7currentEv() #12
  %29 = load i32, ptr %13, align 8
  %30 = zext i32 %26 to i64
  %31 = getelementptr inbounds [316 x ptr], ptr @_ZN22ShenandoahPhaseTimings12_phase_namesE, i64 0, i64 %30
  %32 = load ptr, ptr %31, align 8
  %33 = load i8, ptr getelementptr inbounds (i8, ptr @_ZN15JfrEventSetting19_jvm_event_settingsE, i64 1769), align 1
  %.not.i.i = icmp eq i8 %33, 0
  br i1 %.not.i.i, label %_ZN22ShenandoahPhaseTimings18is_root_work_phaseENS_5PhaseE.exit, label %34

34:                                               ; preds = %23
  %35 = getelementptr inbounds i8, ptr %0, i64 48
  %36 = load i8, ptr %35, align 8
  %37 = trunc i8 %36 to i1
  br i1 %37, label %_ZN8JfrEventI20EventGCPhaseParallelE13should_commitEv.exit.thread.i, label %38

38:                                               ; preds = %34
  %39 = load i64, ptr %27, align 8
  %40 = icmp eq i64 %39, 0
  br i1 %40, label %41, label %43

41:                                               ; preds = %38
  %42 = tail call noundef i64 @_ZN33FastUnorderedElapsedCounterSource3nowEv() #12
  store i64 %42, ptr %27, align 8
  %.phi.trans.insert.i.i.i = getelementptr inbounds i8, ptr %0, i64 40
  %.pre.i.i.i = load i64, ptr %.phi.trans.insert.i.i.i, align 8
  br label %_ZN8JfrEventI20EventGCPhaseParallelE13should_commitEv.exit.i

43:                                               ; preds = %38
  %44 = getelementptr inbounds i8, ptr %0, i64 40
  %45 = load i64, ptr %44, align 8
  %46 = icmp eq i64 %45, 0
  br i1 %46, label %47, label %_ZN8JfrEventI20EventGCPhaseParallelE13should_commitEv.exit.i

47:                                               ; preds = %43
  %48 = tail call noundef i64 @_ZN33FastUnorderedElapsedCounterSource3nowEv() #12
  store i64 %48, ptr %44, align 8
  %.pre3.i.i.i = load i64, ptr %27, align 8
  br label %_ZN8JfrEventI20EventGCPhaseParallelE13should_commitEv.exit.i

_ZN8JfrEventI20EventGCPhaseParallelE13should_commitEv.exit.i: ; preds = %47, %43, %41
  %49 = phi i64 [ %39, %43 ], [ %.pre3.i.i.i, %47 ], [ %42, %41 ]
  %50 = phi i64 [ %45, %43 ], [ %48, %47 ], [ %.pre.i.i.i, %41 ]
  %51 = sub nsw i64 %50, %49
  %52 = load i64, ptr getelementptr inbounds (i8, ptr @_ZN15JfrEventSetting19_jvm_event_settingsE, i64 1752), align 8
  %53 = icmp sge i64 %51, %52
  %54 = getelementptr inbounds i8, ptr %0, i64 49
  %55 = zext i1 %53 to i8
  store i8 %55, ptr %54, align 1
  %56 = getelementptr inbounds i8, ptr %0, i64 50
  store i8 1, ptr %56, align 2
  br i1 %53, label %_ZN8JfrEventI20EventGCPhaseParallelE13should_commitEv.exit.thread.i, label %_ZN22ShenandoahPhaseTimings18is_root_work_phaseENS_5PhaseE.exit

_ZN8JfrEventI20EventGCPhaseParallelE13should_commitEv.exit.thread.i: ; preds = %_ZN8JfrEventI20EventGCPhaseParallelE13should_commitEv.exit.i, %34
  %57 = getelementptr inbounds i8, ptr %0, i64 52
  store i32 %28, ptr %57, align 4
  %58 = getelementptr inbounds i8, ptr %0, i64 56
  store i32 %29, ptr %58, align 8
  %59 = getelementptr inbounds i8, ptr %0, i64 64
  store ptr %32, ptr %59, align 8
  tail call void @_ZN8JfrEventI20EventGCPhaseParallelE6commitEv(ptr noundef nonnull align 8 dereferenceable(19) %27)
  br label %_ZN22ShenandoahPhaseTimings18is_root_work_phaseENS_5PhaseE.exit

_ZN22ShenandoahPhaseTimings18is_root_work_phaseENS_5PhaseE.exit: ; preds = %_ZN8JfrEventI20EventGCPhaseParallelE13should_commitEv.exit.thread.i, %_ZN8JfrEventI20EventGCPhaseParallelE13should_commitEv.exit.i, %23, %1
  ret void
}